; Function Attrs: mustprogress uwtable
define internal fastcc void @_ZN3gmx12_GLOBAL__N_118acceptOptionsGroupINS_23OptionsModifyingVisitorEEEvRKNS_8internal17OptionSectionImpl5GroupEPT_(ptr noundef nonnull readonly align 8 dereferenceable(64) %0, ptr noundef %1) unnamed_addr #0 personality ptr @__gxx_personality_v0 {
  %3 = getelementptr inbounds i8, ptr %0, i64 16
  %4 = load ptr, ptr %3, align 8
  %5 = getelementptr inbounds i8, ptr %0, i64 24
  %6 = load ptr, ptr %5, align 8
  %.not18 = icmp eq ptr %4, %6
  br i1 %.not18, label %._crit_edge, label %.lr.ph

.lr.ph:                                           ; preds = %2, %.lr.ph
  %.sroa.014.019 = phi ptr [ %15, %.lr.ph ], [ %4, %2 ]
  %7 = load ptr, ptr %.sroa.014.019, align 8
  %8 = load ptr, ptr %7, align 8
  %9 = getelementptr inbounds i8, ptr %8, i64 16
  %10 = load ptr, ptr %9, align 8
  %11 = tail call noundef nonnull align 8 dereferenceable(16) ptr %10(ptr noundef nonnull align 8 dereferenceable(98) %7)
  %12 = load ptr, ptr %1, align 8
  %13 = getelementptr inbounds i8, ptr %12, i64 24
  %14 = load ptr, ptr %13, align 8
  tail call void %14(ptr noundef nonnull align 8 dereferenceable(8) %1, ptr noundef nonnull %11)
  %15 = getelementptr inbounds i8, ptr %.sroa.014.019, i64 8
  %.not = icmp eq ptr %15, %6
  br i1 %.not, label %._crit_edge, label %.lr.ph

._crit_edge:                                      ; preds = %.lr.ph, %2
  %16 = getelementptr inbounds i8, ptr %0, i64 40
  %.sroa.010.020 = load ptr, ptr %16, align 8
  %.not1721 = icmp eq ptr %.sroa.010.020, %16
  br i1 %.not1721, label %._crit_edge25, label %.lr.ph24

.lr.ph24:                                         ; preds = %._crit_edge, %.lr.ph24
  %.sroa.010.022 = phi ptr [ %.sroa.010.0, %.lr.ph24 ], [ %.sroa.010.020, %._crit_edge ]
  %17 = getelementptr inbounds i8, ptr %.sroa.010.022, i64 16
  tail call fastcc void @_ZN3gmx12_GLOBAL__N_118acceptOptionsGroupINS_23OptionsModifyingVisitorEEEvRKNS_8internal17OptionSectionImpl5GroupEPT_(ptr noundef nonnull align 8 dereferenceable(64) %17, ptr noundef %1)
  %.sroa.010.0 = load ptr, ptr %.sroa.010.022, align 8
  %.not17 = icmp eq ptr %.sroa.010.0, %16
  br i1 %.not17, label %._crit_edge25, label %.lr.ph24

._crit_edge25:                                    ; preds = %.lr.ph24, %._crit_edge
  ret void
}